target datalayout = "e-m:e-p270:32:32-p271:32:32-p272:64:64-i64:64-i128:128-f80:128-n8:16:32:64-S128"
target triple = "x86_64-pc-linux-gnu"

%struct.printTableContent = type { ptr, ptr, i32, i32, ptr, ptr, ptr, ptr, i64, ptr, ptr, ptr, ptr, ptr }

@stderr = external global ptr, align 8
@.str.22 = private unnamed_addr constant [88 x i8] c"Cannot print table contents: number of cells %lld is equal to or exceeds maximum %lld.\0A\00", align 1

; Function Attrs: nounwind uwtable
define dso_local void @printTableInit(ptr noundef %0, ptr noundef %1, ptr noundef %2, i32 noundef %3, i32 noundef %4) #0 {
  %6 = alloca ptr, align 8
  %7 = alloca ptr, align 8
  %8 = alloca ptr, align 8
  %9 = alloca i32, align 4
  %10 = alloca i32, align 4
  %11 = alloca i64, align 8
  store ptr %0, ptr %6, align 8
  store ptr %1, ptr %7, align 8
  store ptr %2, ptr %8, align 8
  store i32 %3, ptr %9, align 4
  store i32 %4, ptr %10, align 4
  call void @llvm.lifetime.start.p0(i64 8, ptr %11) #8
  %12 = load ptr, ptr %7, align 8
  %13 = load ptr, ptr %6, align 8
  %14 = getelementptr inbounds nuw %struct.printTableContent, ptr %13, i32 0, i32 0
  store ptr %12, ptr %14, align 8
  %15 = load ptr, ptr %8, align 8
  %16 = load ptr, ptr %6, align 8
  %17 = getelementptr inbounds nuw %struct.printTableContent, ptr %16, i32 0, i32 1
  store ptr %15, ptr %17, align 8
  %18 = load i32, ptr %9, align 4
  %19 = load ptr, ptr %6, align 8
  %20 = getelementptr inbounds nuw %struct.printTableContent, ptr %19, i32 0, i32 2
  store i32 %18, ptr %20, align 8
  %21 = load i32, ptr %10, align 4
  %22 = load ptr, ptr %6, align 8
  %23 = getelementptr inbounds nuw %struct.printTableContent, ptr %22, i32 0, i32 3
  store i32 %21, ptr %23, align 4
  %24 = load i32, ptr %9, align 4
  %25 = add i32 %24, 1
  %26 = sext i32 %25 to i64
  %27 = mul i64 %26, 8
  %28 = call ptr @pg_malloc0(i64 noundef %27)
  %29 = load ptr, ptr %6, align 8
  %30 = getelementptr inbounds nuw %struct.printTableContent, ptr %29, i32 0, i32 4
  store ptr %28, ptr %30, align 8
  %31 = load i32, ptr %9, align 4
  %32 = sext i32 %31 to i64
  %33 = load i32, ptr %10, align 4
  %34 = sext i32 %33 to i64
  %35 = mul i64 %32, %34
  store i64 %35, ptr %11, align 8
  %36 = load i64, ptr %11, align 8
  %37 = icmp uge i64 %36, 2305843009213693951
  br i1 %37, label %38, label %42

38:                                               ; preds = %5
  %39 = load ptr, ptr @stderr, align 8
  %40 = load i64, ptr %11, align 8
  %41 = call i32 (ptr, ptr, ...) @pg_fprintf(ptr noundef %39, ptr noundef @.str.22, i64 noundef %40, i64 noundef 2305843009213693951)
  call void @exit(i32 noundef 1) #10
  unreachable

42:                                               ; preds = %5
  %43 = load i64, ptr %11, align 8
  %44 = add i64 %43, 1
  %45 = mul i64 %44, 8
  %46 = call ptr @pg_malloc0(i64 noundef %45)
  %47 = load ptr, ptr %6, align 8
  %48 = getelementptr inbounds nuw %struct.printTableContent, ptr %47, i32 0, i32 6
  store ptr %46, ptr %48, align 8
  %49 = load ptr, ptr %6, align 8
  %50 = getelementptr inbounds nuw %struct.printTableContent, ptr %49, i32 0, i32 9
  store ptr null, ptr %50, align 8
  %51 = load ptr, ptr %6, align 8
  %52 = getelementptr inbounds nuw %struct.printTableContent, ptr %51, i32 0, i32 10
  store ptr null, ptr %52, align 8
  %53 = load i32, ptr %9, align 4
  %54 = add i32 %53, 1
  %55 = sext i32 %54 to i64
  %56 = mul i64 %55, 1
  %57 = call ptr @pg_malloc0(i64 noundef %56)
  %58 = load ptr, ptr %6, align 8
  %59 = getelementptr inbounds nuw %struct.printTableContent, ptr %58, i32 0, i32 12
  store ptr %57, ptr %59, align 8
  %60 = load ptr, ptr %6, align 8
  %61 = getelementptr inbounds nuw %struct.printTableContent, ptr %60, i32 0, i32 4
  %62 = load ptr, ptr %61, align 8
  %63 = load ptr, ptr %6, align 8
  %64 = getelementptr inbounds nuw %struct.printTableContent, ptr %63, i32 0, i32 5
  store ptr %62, ptr %64, align 8
  %65 = load ptr, ptr %6, align 8
  %66 = getelementptr inbounds nuw %struct.printTableContent, ptr %65, i32 0, i32 6
  %67 = load ptr, ptr %66, align 8
  %68 = load ptr, ptr %6, align 8
  %69 = getelementptr inbounds nuw %struct.printTableContent, ptr %68, i32 0, i32 7
  store ptr %67, ptr %69, align 8
  %70 = load ptr, ptr %6, align 8
  %71 = getelementptr inbounds nuw %struct.printTableContent, ptr %70, i32 0, i32 10
  %72 = load ptr, ptr %71, align 8
  %73 = load ptr, ptr %6, align 8
  %74 = getelementptr inbounds nuw %struct.printTableContent, ptr %73, i32 0, i32 11
  store ptr %72, ptr %74, align 8
  %75 = load ptr, ptr %6, align 8
  %76 = getelementptr inbounds nuw %struct.printTableContent, ptr %75, i32 0, i32 12
  %77 = load ptr, ptr %76, align 8
  %78 = load ptr, ptr %6, align 8
  %79 = getelementptr inbounds nuw %struct.printTableContent, ptr %78, i32 0, i32 13
  store ptr %77, ptr %79, align 8
  %80 = load ptr, ptr %6, align 8
  %81 = getelementptr inbounds nuw %struct.printTableContent, ptr %80, i32 0, i32 8
  store i64 0, ptr %81, align 8
  call void @llvm.lifetime.end.p0(i64 8, ptr %11) #8
  ret void
}