; Function Attrs: nounwind uwtable
define dso_local void @printTableInit(ptr noundef captures(none) initializes((0, 32)) %0, ptr noundef %1, ptr noundef %2, i32 noundef %3, i32 noundef %4) local_unnamed_addr #3 {
  store ptr %1, ptr %0, align 8
  %6 = getelementptr inbounds nuw i8, ptr %0, i64 8
  store ptr %2, ptr %6, align 8
  %7 = getelementptr inbounds nuw i8, ptr %0, i64 16
  store i32 %3, ptr %7, align 8
  %8 = getelementptr inbounds nuw i8, ptr %0, i64 20
  store i32 %4, ptr %8, align 4
  %9 = add i32 %3, 1
  %10 = sext i32 %9 to i64
  %11 = shl nsw i64 %10, 3
  %12 = tail call ptr @pg_malloc0(i64 noundef %11) #19
  %13 = getelementptr inbounds nuw i8, ptr %0, i64 24
  store ptr %12, ptr %13, align 8
  %14 = sext i32 %3 to i64
  %15 = sext i32 %4 to i64
  %16 = mul nsw i64 %15, %14
  %17 = icmp ugt i64 %16, 2305843009213693950
  br i1 %17, label %18, label %21

18:                                               ; preds = %5
  %19 = load ptr, ptr @stderr, align 8
  %20 = tail call i32 (ptr, ptr, ...) @pg_fprintf(ptr noundef %19, ptr noundef nonnull @.str.22, i64 noundef %16, i64 noundef 2305843009213693951) #19
  tail call void @exit(i32 noundef 1) #21
  unreachable

21:                                               ; preds = %5
  %22 = shl nuw i64 %16, 3
  %23 = add nuw i64 %22, 8
  %24 = tail call ptr @pg_malloc0(i64 noundef %23) #19
  %25 = getelementptr inbounds nuw i8, ptr %0, i64 40
  store ptr %24, ptr %25, align 8
  %26 = getelementptr inbounds nuw i8, ptr %0, i64 64
  %27 = getelementptr inbounds nuw i8, ptr %0, i64 72
  tail call void @llvm.memset.p0.i64(ptr noundef nonnull align 8 dereferenceable(16) %26, i8 0, i64 16, i1 false)
  %28 = tail call ptr @pg_malloc0(i64 noundef %10) #19
  %29 = getelementptr inbounds nuw i8, ptr %0, i64 88
  store ptr %28, ptr %29, align 8
  %30 = load ptr, ptr %13, align 8
  %31 = getelementptr inbounds nuw i8, ptr %0, i64 32
  store ptr %30, ptr %31, align 8
  %32 = load ptr, ptr %25, align 8
  %33 = getelementptr inbounds nuw i8, ptr %0, i64 48
  store ptr %32, ptr %33, align 8
  %34 = load ptr, ptr %27, align 8
  %35 = getelementptr inbounds nuw i8, ptr %0, i64 80
  store ptr %34, ptr %35, align 8
  %36 = getelementptr inbounds nuw i8, ptr %0, i64 96
  store ptr %28, ptr %36, align 8
  %37 = getelementptr inbounds nuw i8, ptr %0, i64 56
  store i64 0, ptr %37, align 8
  ret void
}